; Function Attrs: mustprogress nounwind uwtable
define dso_local void @_ZN4absl13time_internal4cctz12TimeZoneLibCC2ERKNSt7__cxx1112basic_stringIcSt11char_traitsIcESaIcEEE(ptr nocapture noundef nonnull writeonly align 8 dereferenceable(9) %this, ptr noundef nonnull align 8 dereferenceable(32) %name) unnamed_addr #3 align 2 personality ptr @__gxx_personality_v0 {
entry:
  store ptr getelementptr inbounds ({ [10 x ptr] }, ptr @_ZTVN4absl13time_internal4cctz12TimeZoneLibCE, i64 0, i32 0, i64 2), ptr %this, align 8
  %local_ = getelementptr inbounds i8, ptr %this, i64 8
  %call.i = tail call noundef i32 @_ZNKSt7__cxx1112basic_stringIcSt11char_traitsIcESaIcEE7compareEPKc(ptr noundef nonnull align 8 dereferenceable(32) %name, ptr noundef nonnull @.str.2) #12
  %cmp.i = icmp eq i32 %call.i, 0
  %frombool = zext i1 %cmp.i to i8
  store i8 %frombool, ptr %local_, align 8
  ret void
}